; Function Attrs: nounwind uwtable
define dso_local void @hashflush(ptr noundef %0) local_unnamed_addr #0 {
  %2 = getelementptr inbounds nuw i8, ptr %0, i64 8
  %3 = load i32, ptr %2, align 8, !tbaa !4
  %.not = icmp eq i32 %3, 0
  br i1 %.not, label %19, label %4

4:                                                ; preds = %1
  %5 = getelementptr inbounds nuw i8, ptr %0, i64 2480
  %6 = load i32, ptr %5, align 8, !tbaa !14
  %.not10 = icmp eq i32 %6, 0
  br i1 %.not10, label %7, label %16

7:                                                ; preds = %4
  %8 = getelementptr inbounds nuw i8, ptr %0, i64 2472
  %9 = load ptr, ptr %8, align 8, !tbaa !15
  %10 = getelementptr inbounds nuw i8, ptr %9, i64 56
  %11 = load ptr, ptr %10, align 8, !tbaa !16
  %12 = getelementptr inbounds nuw i8, ptr %0, i64 16
  %13 = getelementptr inbounds nuw i8, ptr %0, i64 2456
  %14 = load ptr, ptr %13, align 8, !tbaa !19
  %15 = zext i32 %3 to i64
  tail call void %11(ptr noundef nonnull %12, ptr noundef %14, i64 noundef %15) #13
  br label %16

16:                                               ; preds = %7, %4
  %17 = getelementptr inbounds nuw i8, ptr %0, i64 2456
  %18 = load ptr, ptr %17, align 8, !tbaa !19
  tail call fastcc void @flush(ptr noundef nonnull %0, ptr noundef %18, i32 noundef %3)
  store i32 0, ptr %2, align 8, !tbaa !4
  br label %19

19:                                               ; preds = %16, %1
  ret void
}